target datalayout = "e-m:e-p270:32:32-p271:32:32-p272:64:64-i64:64-i128:128-f80:128-n8:16:32:64-S128"
target triple = "x86_64-unknown-linux-gnu"

; Function Attrs: mustprogress uwtable
define hidden noundef ptr @_ZN20dependency_converter6concatEjPKP4goal(i32 noundef %n, ptr noundef %goals) #4 align 2 {
entry:
  %retval = alloca ptr, align 8
  %n.addr = alloca i32, align 4
  %goals.addr = alloca ptr, align 8
  store i32 %n, ptr %n.addr, align 4
  store ptr %goals, ptr %goals.addr, align 8
  %0 = load i32, ptr %n.addr, align 4
  %cmp = icmp eq i32 %0, 0
  br i1 %cmp, label %if.then, label %if.end

if.then:                                          ; preds = %entry
  store ptr null, ptr %retval, align 8
  br label %return

if.end:                                           ; preds = %entry
  %call = call noalias noundef ptr @_ZN6memory8allocateEm(i64 noundef 168)
  %1 = load i32, ptr %n.addr, align 4
  %2 = load ptr, ptr %goals.addr, align 8
  call void @_ZN25goal_dependency_converterC2EjPKP4goal(ptr noundef nonnull align 8 dereferenceable(168) %call, i32 noundef %1, ptr noundef %2)
  store ptr %call, ptr %retval, align 8
  br label %return

return:                                           ; preds = %if.end, %if.then
  %3 = load ptr, ptr %retval, align 8
  ret ptr %3
}