; Function Attrs: mustprogress uwtable
define hidden noundef ptr @_ZN20dependency_converter6concatEjPKP4goal(i32 noundef %n, ptr noundef %goals) local_unnamed_addr #3 align 2 {
entry:
  %cmp = icmp eq i32 %n, 0
  br i1 %cmp, label %return, label %if.end

if.end:                                           ; preds = %entry
  %call = tail call noalias noundef ptr @_ZN6memory8allocateEm(i64 noundef 168)
  tail call void @_ZN25goal_dependency_converterC2EjPKP4goal(ptr noundef nonnull align 8 dereferenceable(168) %call, i32 noundef %n, ptr noundef %goals)
  br label %return

return:                                           ; preds = %entry, %if.end
  %retval.0 = phi ptr [ %call, %if.end ], [ null, %entry ]
  ret ptr %retval.0
}